target datalayout = "e-m:e-p270:32:32-p271:32:32-p272:64:64-i64:64-i128:128-f80:128-n8:16:32:64-S128"
target triple = "x86_64-pc-linux-gnu"

%struct.PJ_XY = type { double, double }
%struct.PJ_LP = type { double, double }

; Function Attrs: mustprogress uwtable
define internal { double, double } @_ZL24peirce_q_diamond_inverse5PJ_XYP8PJconsts(double %0, double %1, ptr noundef %2) #0 {
  %4 = alloca %struct.PJ_LP, align 8
  %5 = alloca %struct.PJ_XY, align 8
  %6 = alloca ptr, align 8
  %7 = alloca %struct.PJ_LP, align 8
  %8 = alloca double, align 8
  %9 = alloca %struct.PJ_XY, align 8
  %10 = alloca %struct.PJ_LP, align 8
  %11 = getelementptr inbounds { double, double }, ptr %5, i32 0, i32 0
  store double %0, ptr %11, align 8
  %12 = getelementptr inbounds { double, double }, ptr %5, i32 0, i32 1
  store double %1, ptr %12, align 8
  store ptr %2, ptr %6, align 8
  %13 = getelementptr inbounds %struct.PJ_LP, ptr %7, i32 0, i32 1
  store double 0.000000e+00, ptr %13, align 8
  %14 = getelementptr inbounds %struct.PJ_XY, ptr %5, i32 0, i32 0
  %15 = load double, ptr %14, align 8
  %16 = fcmp oge double %15, 0.000000e+00
  br i1 %16, label %17, label %58

17:                                               ; preds = %3
  %18 = getelementptr inbounds %struct.PJ_XY, ptr %5, i32 0, i32 1
  %19 = load double, ptr %18, align 8
  %20 = fcmp ole double %19, 0.000000e+00
  br i1 %20, label %21, label %58

21:                                               ; preds = %17
  %22 = getelementptr inbounds %struct.PJ_LP, ptr %7, i32 0, i32 0
  store double 0x3FE921FB54442D18, ptr %22, align 8
  %23 = getelementptr inbounds %struct.PJ_XY, ptr %5, i32 0, i32 0
  %24 = load double, ptr %23, align 8
  %25 = fcmp ogt double %24, 0.000000e+00
  br i1 %25, label %26, label %33

26:                                               ; preds = %21
  %27 = getelementptr inbounds %struct.PJ_XY, ptr %5, i32 0, i32 1
  %28 = load double, ptr %27, align 8
  %29 = fcmp oeq double %28, 0.000000e+00
  br i1 %29, label %30, label %33

30:                                               ; preds = %26
  %31 = getelementptr inbounds %struct.PJ_LP, ptr %7, i32 0, i32 0
  store double 0x3FF921FB54442D18, ptr %31, align 8
  %32 = getelementptr inbounds %struct.PJ_LP, ptr %7, i32 0, i32 1
  store double 0.000000e+00, ptr %32, align 8
  br label %57

33:                                               ; preds = %26, %21
  %34 = getelementptr inbounds %struct.PJ_XY, ptr %5, i32 0, i32 0
  %35 = load double, ptr %34, align 8
  %36 = fcmp oeq double %35, 0.000000e+00
  br i1 %36, label %37, label %44

37:                                               ; preds = %33
  %38 = getelementptr inbounds %struct.PJ_XY, ptr %5, i32 0, i32 1
  %39 = load double, ptr %38, align 8
  %40 = fcmp oeq double %39, 0.000000e+00
  br i1 %40, label %41, label %44

41:                                               ; preds = %37
  %42 = getelementptr inbounds %struct.PJ_LP, ptr %7, i32 0, i32 0
  store double 0.000000e+00, ptr %42, align 8
  %43 = getelementptr inbounds %struct.PJ_LP, ptr %7, i32 0, i32 1
  store double 0x3FF921FB54442D18, ptr %43, align 8
  call void @llvm.memcpy.p0.p0.i64(ptr align 8 %4, ptr align 8 %7, i64 16, i1 false)
  br label %109

44:                                               ; preds = %37, %33
  %45 = getelementptr inbounds %struct.PJ_XY, ptr %5, i32 0, i32 0
  %46 = load double, ptr %45, align 8
  %47 = fcmp oeq double %46, 0.000000e+00
  br i1 %47, label %48, label %55

48:                                               ; preds = %44
  %49 = getelementptr inbounds %struct.PJ_XY, ptr %5, i32 0, i32 1
  %50 = load double, ptr %49, align 8
  %51 = fcmp olt double %50, 0.000000e+00
  br i1 %51, label %52, label %55

52:                                               ; preds = %48
  %53 = getelementptr inbounds %struct.PJ_LP, ptr %7, i32 0, i32 0
  store double 0.000000e+00, ptr %53, align 8
  %54 = getelementptr inbounds %struct.PJ_LP, ptr %7, i32 0, i32 1
  store double 0x3FE921FB54442D18, ptr %54, align 8
  br label %55

55:                                               ; preds = %52, %48, %44
  br label %56

56:                                               ; preds = %55
  br label %57

57:                                               ; preds = %56, %30
  br label %82

58:                                               ; preds = %17, %3
  %59 = getelementptr inbounds %struct.PJ_XY, ptr %5, i32 0, i32 0
  %60 = load double, ptr %59, align 8
  %61 = fcmp oge double %60, 0.000000e+00
  br i1 %61, label %62, label %68

62:                                               ; preds = %58
  %63 = getelementptr inbounds %struct.PJ_XY, ptr %5, i32 0, i32 1
  %64 = load double, ptr %63, align 8
  %65 = fcmp oge double %64, 0.000000e+00
  br i1 %65, label %66, label %68

66:                                               ; preds = %62
  %67 = getelementptr inbounds %struct.PJ_LP, ptr %7, i32 0, i32 0
  store double 0x4002D97C7F3321D2, ptr %67, align 8
  br label %81

68:                                               ; preds = %62, %58
  %69 = getelementptr inbounds %struct.PJ_XY, ptr %5, i32 0, i32 0
  %70 = load double, ptr %69, align 8
  %71 = fcmp ole double %70, 0.000000e+00
  br i1 %71, label %72, label %78

72:                                               ; preds = %68
  %73 = getelementptr inbounds %struct.PJ_XY, ptr %5, i32 0, i32 1
  %74 = load double, ptr %73, align 8
  %75 = fcmp oge double %74, 0.000000e+00
  br i1 %75, label %76, label %78

76:                                               ; preds = %72
  %77 = getelementptr inbounds %struct.PJ_LP, ptr %7, i32 0, i32 0
  store double 0xC002D97C7F3321D2, ptr %77, align 8
  br label %80

78:                                               ; preds = %72, %68
  %79 = getelementptr inbounds %struct.PJ_LP, ptr %7, i32 0, i32 0
  store double 0xBFE921FB54442D18, ptr %79, align 8
  br label %80

80:                                               ; preds = %78, %76
  br label %81

81:                                               ; preds = %80, %66
  br label %82

82:                                               ; preds = %81, %57
  %83 = getelementptr inbounds %struct.PJ_XY, ptr %5, i32 0, i32 0
  %84 = load double, ptr %83, align 8
  %85 = call double @llvm.fabs.f64(double %84)
  %86 = fcmp ogt double %85, 0x3FFDAE62C8EA5AB5
  br i1 %86, label %92, label %87

87:                                               ; preds = %82
  %88 = getelementptr inbounds %struct.PJ_XY, ptr %5, i32 0, i32 1
  %89 = load double, ptr %88, align 8
  %90 = call double @llvm.fabs.f64(double %89)
  %91 = fcmp ogt double %90, 0x3FFDAE62C8EA5AB5
  br i1 %91, label %92, label %94

92:                                               ; preds = %87, %82
  %93 = getelementptr inbounds %struct.PJ_LP, ptr %7, i32 0, i32 1
  store double 0xBFE921FB54442D18, ptr %93, align 8
  br label %94

94:                                               ; preds = %92, %87
  store double 1.000000e-10, ptr %8, align 8
  call void @llvm.memcpy.p0.p0.i64(ptr align 8 %9, ptr align 8 %5, i64 16, i1 false)
  %95 = load ptr, ptr %6, align 8
  call void @llvm.memcpy.p0.p0.i64(ptr align 8 %10, ptr align 8 %7, i64 16, i1 false)
  %96 = getelementptr inbounds { double, double }, ptr %9, i32 0, i32 0
  %97 = load double, ptr %96, align 8
  %98 = getelementptr inbounds { double, double }, ptr %9, i32 0, i32 1
  %99 = load double, ptr %98, align 8
  %100 = getelementptr inbounds { double, double }, ptr %10, i32 0, i32 0
  %101 = load double, ptr %100, align 8
  %102 = getelementptr inbounds { double, double }, ptr %10, i32 0, i32 1
  %103 = load double, ptr %102, align 8
  %104 = call { double, double } @_Z21pj_generic_inverse_2d5PJ_XYP8PJconsts5PJ_LPd(double %97, double %99, ptr noundef %95, double %101, double %103, double noundef 1.000000e-10)
  %105 = getelementptr inbounds { double, double }, ptr %4, i32 0, i32 0
  %106 = extractvalue { double, double } %104, 0
  store double %106, ptr %105, align 8
  %107 = getelementptr inbounds { double, double }, ptr %4, i32 0, i32 1
  %108 = extractvalue { double, double } %104, 1
  store double %108, ptr %107, align 8
  br label %109

109:                                              ; preds = %94, %41
  %110 = load { double, double }, ptr %4, align 8
  ret { double, double } %110
}