; Function Attrs: mustprogress uwtable
define internal { double, double } @_ZL24peirce_q_diamond_inverse5PJ_XYP8PJconsts(double %0, double %1, ptr noundef %2) #0 {
  %4 = fcmp oge double %0, 0.000000e+00
  %5 = fcmp ole double %1, 0.000000e+00
  %or.cond = select i1 %4, i1 %5, i1 false
  br i1 %or.cond, label %6, label %14

6:                                                ; preds = %3
  %7 = fcmp ogt double %0, 0.000000e+00
  %8 = fcmp oeq double %1, 0.000000e+00
  %or.cond5 = select i1 %7, i1 %8, i1 false
  br i1 %or.cond5, label %18, label %9

9:                                                ; preds = %6
  %10 = fcmp oeq double %0, 0.000000e+00
  %or.cond8 = select i1 %10, i1 %8, i1 false
  br i1 %or.cond8, label %26, label %11

11:                                               ; preds = %9
  %12 = fcmp olt double %1, 0.000000e+00
  %or.cond11 = select i1 %10, i1 %12, i1 false
  br i1 %or.cond11, label %13, label %18

13:                                               ; preds = %11
  br label %18

14:                                               ; preds = %3
  %15 = fcmp oge double %1, 0.000000e+00
  %or.cond14 = select i1 %4, i1 %15, i1 false
  br i1 %or.cond14, label %18, label %16

16:                                               ; preds = %14
  %17 = fcmp ole double %0, 0.000000e+00
  %or.cond17 = select i1 %17, i1 %15, i1 false
  %. = select i1 %or.cond17, double 0xC002D97C7F3321D2, double 0xBFE921FB54442D18
  br label %18

18:                                               ; preds = %16, %14, %6, %11, %13
  %.sroa.020.0 = phi double [ 0.000000e+00, %13 ], [ 0x3FE921FB54442D18, %11 ], [ 0x3FF921FB54442D18, %6 ], [ 0x4002D97C7F3321D2, %14 ], [ %., %16 ]
  %.sroa.9.0 = phi double [ 0x3FE921FB54442D18, %13 ], [ 0.000000e+00, %11 ], [ 0.000000e+00, %6 ], [ 0.000000e+00, %14 ], [ 0.000000e+00, %16 ]
  %19 = tail call double @llvm.fabs.f64(double %0)
  %20 = fcmp ogt double %19, 0x3FFDAE62C8EA5AB5
  %21 = tail call double @llvm.fabs.f64(double %1)
  %22 = fcmp ogt double %21, 0x3FFDAE62C8EA5AB5
  %or.cond38 = select i1 %20, i1 true, i1 %22
  %.sroa.9.1 = select i1 %or.cond38, double 0xBFE921FB54442D18, double %.sroa.9.0
  %23 = tail call { double, double } @_Z21pj_generic_inverse_2d5PJ_XYP8PJconsts5PJ_LPd(double %0, double %1, ptr noundef %2, double %.sroa.020.0, double %.sroa.9.1, double noundef 1.000000e-10)
  %24 = extractvalue { double, double } %23, 0
  %25 = extractvalue { double, double } %23, 1
  br label %26

26:                                               ; preds = %9, %18
  %.sroa.035.0 = phi double [ %24, %18 ], [ 0.000000e+00, %9 ]
  %.sroa.3.0 = phi double [ %25, %18 ], [ 0x3FF921FB54442D18, %9 ]
  %.fca.0.insert = insertvalue { double, double } poison, double %.sroa.035.0, 0
  %.fca.1.insert = insertvalue { double, double } %.fca.0.insert, double %.sroa.3.0, 1
  ret { double, double } %.fca.1.insert
}